target datalayout = "e-m:e-p270:32:32-p271:32:32-p272:64:64-i64:64-i128:128-f80:128-n8:16:32:64-S128"
target triple = "x86_64-pc-linux-gnu"

%"class.gmx::KeyValueTreeObject" = type { %"class.std::map", %"class.std::vector" }
%"class.std::map" = type { %"class.std::_Rb_tree" }
%"class.std::_Rb_tree" = type { %"struct.std::_Rb_tree<std::__cxx11::basic_string<char>, std::pair<const std::__cxx11::basic_string<char>, gmx::KeyValueTreeValue>, std::_Select1st<std::pair<const std::__cxx11::basic_string<char>, gmx::KeyValueTreeValue>>, std::less<std::__cxx11::basic_string<char>>>::_Rb_tree_impl" }
%"struct.std::_Rb_tree<std::__cxx11::basic_string<char>, std::pair<const std::__cxx11::basic_string<char>, gmx::KeyValueTreeValue>, std::_Select1st<std::pair<const std::__cxx11::basic_string<char>, gmx::KeyValueTreeValue>>, std::less<std::__cxx11::basic_string<char>>>::_Rb_tree_impl" = type { [8 x i8], %"struct.std::_Rb_tree_header" }
%"struct.std::_Rb_tree_header" = type { %"struct.std::_Rb_tree_node_base", i64 }
%"struct.std::_Rb_tree_node_base" = type { i32, ptr, ptr, ptr }
%"class.std::vector" = type { %"struct.std::_Vector_base" }
%"struct.std::_Vector_base" = type { %"struct.std::_Vector_base<gmx::KeyValueTreeProperty, std::allocator<gmx::KeyValueTreeProperty>>::_Vector_impl" }
%"struct.std::_Vector_base<gmx::KeyValueTreeProperty, std::allocator<gmx::KeyValueTreeProperty>>::_Vector_impl" = type { %"struct.std::_Vector_base<gmx::KeyValueTreeProperty, std::allocator<gmx::KeyValueTreeProperty>>::_Vector_impl_data" }
%"struct.std::_Vector_base<gmx::KeyValueTreeProperty, std::allocator<gmx::KeyValueTreeProperty>>::_Vector_impl_data" = type { ptr, ptr, ptr }
%"class.gmx::KeyValueTreeBuilder" = type { %"class.gmx::KeyValueTreeObject" }
%"class.gmx::WriteCheckpointDataHolder" = type <{ %"class.gmx::KeyValueTreeBuilder", i8, [7 x i8] }>
%"class.gmx::CheckpointData.26" = type { %"class.std::optional" }
%"class.std::optional" = type { %"struct.std::_Optional_base" }
%"struct.std::_Optional_base" = type { %"struct.std::_Optional_payload" }
%"struct.std::_Optional_payload" = type { %"struct.std::_Optional_payload_base.base", [7 x i8] }
%"struct.std::_Optional_payload_base.base" = type <{ %"union.std::_Optional_payload_base<gmx::KeyValueTreeObjectBuilder>::_Storage", i8 }>
%"union.std::_Optional_payload_base<gmx::KeyValueTreeObjectBuilder>::_Storage" = type { %"class.gmx::KeyValueTreeObjectBuilder" }
%"class.gmx::KeyValueTreeObjectBuilder" = type { ptr }
%"struct.std::_Optional_payload_base" = type <{ %"union.std::_Optional_payload_base<gmx::KeyValueTreeObjectBuilder>::_Storage", i8, [7 x i8] }>

; Function Attrs: mustprogress nounwind uwtable
define linkonce_odr void @_ZNSt22_Optional_payload_baseIN3gmx25KeyValueTreeObjectBuilderEE8_StorageIS1_Lb1EEC2IJRS1_EEESt10in_place_tDpOT_(ptr noundef nonnull align 8 dereferenceable(8) %0, ptr noundef nonnull align 8 dereferenceable(8) %1) unnamed_addr #4 comdat align 2 {
  %3 = alloca ptr, align 8
  %4 = alloca ptr, align 8
  store ptr %0, ptr %3, align 8, !tbaa !272
  store ptr %1, ptr %4, align 8, !tbaa !192
  %5 = load ptr, ptr %3, align 8
  %6 = load ptr, ptr %4, align 8, !tbaa !192
  call void @llvm.memcpy.p0.p0.i64(ptr align 8 %5, ptr align 8 %6, i64 8, i1 false), !tbaa.struct !274
  ret void
}

; Function Attrs: mustprogress uwtable
define linkonce_odr void @_ZNSt22_Optional_payload_baseIN3gmx25KeyValueTreeObjectBuilderEEC2IJRS1_EEESt10in_place_tDpOT_(ptr noundef nonnull align 8 dereferenceable(9) %0, ptr noundef nonnull align 8 dereferenceable(8) %1) unnamed_addr #0 comdat align 2 {
  %3 = alloca ptr, align 8
  %4 = alloca ptr, align 8
  store ptr %0, ptr %3, align 8, !tbaa !268
  store ptr %1, ptr %4, align 8, !tbaa !192
  %5 = load ptr, ptr %3, align 8
  %6 = getelementptr inbounds nuw %"struct.std::_Optional_payload_base", ptr %5, i32 0, i32 0
  %7 = load ptr, ptr %4, align 8, !tbaa !192
  call void @_ZNSt22_Optional_payload_baseIN3gmx25KeyValueTreeObjectBuilderEE8_StorageIS1_Lb1EEC2IJRS1_EEESt10in_place_tDpOT_(ptr noundef nonnull align 8 dereferenceable(8) %6, ptr noundef nonnull align 8 dereferenceable(8) %7)
  %8 = getelementptr inbounds nuw %"struct.std::_Optional_payload_base", ptr %5, i32 0, i32 1
  store i8 1, ptr %8, align 8, !tbaa !270
  ret void
}

; Function Attrs: inlinehint mustprogress uwtable
define linkonce_odr void @_ZNSt17_Optional_payloadIN3gmx25KeyValueTreeObjectBuilderELb1ELb1ELb1EECI2St22_Optional_payload_baseIS1_EIJRS1_EEESt10in_place_tDpOT_(ptr noundef nonnull align 8 dereferenceable(9) %0, ptr noundef nonnull align 8 dereferenceable(8) %1) unnamed_addr #2 comdat align 2 {
  %3 = alloca ptr, align 8
  %4 = alloca ptr, align 8
  store ptr %0, ptr %3, align 8, !tbaa !266
  store ptr %1, ptr %4, align 8, !tbaa !192
  %5 = load ptr, ptr %3, align 8
  %6 = load ptr, ptr %4, align 8
  call void @_ZNSt22_Optional_payload_baseIN3gmx25KeyValueTreeObjectBuilderEEC2IJRS1_EEESt10in_place_tDpOT_(ptr noundef nonnull align 8 dereferenceable(9) %5, ptr noundef nonnull align 8 dereferenceable(8) %6)
  ret void
}

; Function Attrs: noinline noreturn nounwind uwtable
define linkonce_odr hidden void @__clang_call_terminate(ptr noundef %0) #7 comdat {
  %2 = call ptr @__cxa_begin_catch(ptr %0) #17
  call void @_ZSt9terminatev() #19
  unreachable
}

; Function Attrs: mustprogress uwtable
define linkonce_odr void @_ZNSt14_Optional_baseIN3gmx25KeyValueTreeObjectBuilderELb1ELb1EEC2IJRS1_ETnNSt9enable_ifIX18is_constructible_vIS1_DpT_EEbE4typeELb0EEESt10in_place_tDpOS6_(ptr noundef nonnull align 8 dereferenceable(16) %0, ptr noundef nonnull align 8 dereferenceable(8) %1) unnamed_addr #0 comdat align 2 {
  %3 = alloca ptr, align 8
  %4 = alloca ptr, align 8
  store ptr %0, ptr %3, align 8, !tbaa !264
  store ptr %1, ptr %4, align 8, !tbaa !192
  %5 = load ptr, ptr %3, align 8
  %6 = getelementptr inbounds nuw %"struct.std::_Optional_base", ptr %5, i32 0, i32 0
  %7 = load ptr, ptr %4, align 8, !tbaa !192
  call void @_ZNSt17_Optional_payloadIN3gmx25KeyValueTreeObjectBuilderELb1ELb1ELb1EECI2St22_Optional_payload_baseIS1_EIJRS1_EEESt10in_place_tDpOT_(ptr noundef nonnull align 8 dereferenceable(9) %6, ptr noundef nonnull align 8 dereferenceable(8) %7)
  ret void
}

; Function Attrs: mustprogress nounwind uwtable
define linkonce_odr void @_ZNSt8optionalIN3gmx25KeyValueTreeObjectBuilderEEC2IRS1_TnNSt9enable_ifIX7__and_vISt6__not_ISt7is_sameIS2_NSt9remove_cvINSt16remove_referenceIT_E4typeEE4typeEEES6_IS7_ISt10in_place_tSE_EESt16is_constructibleIS1_JSA_EESt14is_convertibleISA_S1_EEEbE4typeELb1EEEOSA_(ptr noundef nonnull align 8 dereferenceable(16) %0, ptr noundef nonnull align 8 dereferenceable(8) %1) unnamed_addr #4 comdat align 2 personality ptr @__gxx_personality_v0 {
  %3 = alloca ptr, align 8
  %4 = alloca ptr, align 8
  store ptr %0, ptr %3, align 8, !tbaa !262
  store ptr %1, ptr %4, align 8, !tbaa !192
  %5 = load ptr, ptr %3, align 8
  %6 = load ptr, ptr %4, align 8, !tbaa !192
  invoke void @_ZNSt14_Optional_baseIN3gmx25KeyValueTreeObjectBuilderELb1ELb1EEC2IJRS1_ETnNSt9enable_ifIX18is_constructible_vIS1_DpT_EEbE4typeELb0EEESt10in_place_tDpOS6_(ptr noundef nonnull align 8 dereferenceable(16) %5, ptr noundef nonnull align 8 dereferenceable(8) %6)
          to label %7 unwind label %8

7:                                                ; preds = %2
  ret void

8:                                                ; preds = %2
  %9 = landingpad { ptr, i32 }
          catch ptr null
  %10 = extractvalue { ptr, i32 } %9, 0
  call void @__clang_call_terminate(ptr %10) #19
  unreachable
}

; Function Attrs: mustprogress nounwind uwtable
define linkonce_odr void @_ZN3gmx25KeyValueTreeObjectBuilderC2EPNS_18KeyValueTreeObjectE(ptr noundef nonnull align 8 dereferenceable(8) %0, ptr noundef %1) unnamed_addr #4 comdat align 2 {
  %3 = alloca ptr, align 8
  %4 = alloca ptr, align 8
  store ptr %0, ptr %3, align 8, !tbaa !192
  store ptr %1, ptr %4, align 8, !tbaa !14
  %5 = load ptr, ptr %3, align 8
  %6 = getelementptr inbounds nuw %"class.gmx::KeyValueTreeObjectBuilder", ptr %5, i32 0, i32 0
  %7 = load ptr, ptr %4, align 8, !tbaa !14
  store ptr %7, ptr %6, align 8, !tbaa !196
  ret void
}

; Function Attrs: inlinehint mustprogress nounwind uwtable
define linkonce_odr void @_ZN3gmx14CheckpointDataILNS_23CheckpointDataOperationE1EEC2EONS_25KeyValueTreeObjectBuilderE(ptr noundef nonnull align 8 dereferenceable(16) %0, ptr noundef nonnull align 8 dereferenceable(8) %1) unnamed_addr #5 comdat align 2 {
  %3 = alloca ptr, align 8
  %4 = alloca ptr, align 8
  store ptr %0, ptr %3, align 8, !tbaa !194
  store ptr %1, ptr %4, align 8, !tbaa !192
  %5 = load ptr, ptr %3, align 8
  %6 = getelementptr inbounds nuw %"class.gmx::CheckpointData.26", ptr %5, i32 0, i32 0
  %7 = load ptr, ptr %4, align 8, !tbaa !192
  call void @_ZNSt8optionalIN3gmx25KeyValueTreeObjectBuilderEEC2IRS1_TnNSt9enable_ifIX7__and_vISt6__not_ISt7is_sameIS2_NSt9remove_cvINSt16remove_referenceIT_E4typeEE4typeEEES6_IS7_ISt10in_place_tSE_EESt16is_constructibleIS1_JSA_EESt14is_convertibleISA_S1_EEEbE4typeELb1EEEOSA_(ptr noundef nonnull align 8 dereferenceable(16) %6, ptr noundef nonnull align 8 dereferenceable(8) %7) #17
  ret void
}

; Function Attrs: inlinehint mustprogress uwtable
define linkonce_odr ptr @_ZN3gmx19KeyValueTreeBuilder10rootObjectEv(ptr noundef nonnull align 8 dereferenceable(72) %0) #2 comdat align 2 {
  %2 = alloca %"class.gmx::KeyValueTreeObjectBuilder", align 8
  %3 = alloca ptr, align 8
  store ptr %0, ptr %3, align 8, !tbaa !109
  %4 = load ptr, ptr %3, align 8
  %5 = getelementptr inbounds nuw %"class.gmx::KeyValueTreeBuilder", ptr %4, i32 0, i32 0
  call void @_ZN3gmx25KeyValueTreeObjectBuilderC2EPNS_18KeyValueTreeObjectE(ptr noundef nonnull align 8 dereferenceable(8) %2, ptr noundef %5)
  %6 = getelementptr inbounds nuw %"class.gmx::KeyValueTreeObjectBuilder", ptr %2, i32 0, i32 0
  %7 = load ptr, ptr %6, align 8
  ret ptr %7
}

; Function Attrs: mustprogress uwtable
define { ptr, i8 } @_ZN3gmx25WriteCheckpointDataHolder14checkpointDataERKNSt7__cxx1112basic_stringIcSt11char_traitsIcESaIcEEE(ptr noundef nonnull align 8 dereferenceable(73) %0, ptr noundef nonnull align 8 dereferenceable(32) %1) #0 align 2 {
  %3 = alloca %"class.gmx::CheckpointData.26", align 8
  %4 = alloca ptr, align 8
  %5 = alloca ptr, align 8
  %6 = alloca %"class.gmx::KeyValueTreeObjectBuilder", align 8
  %7 = alloca %"class.gmx::KeyValueTreeObjectBuilder", align 8
  store ptr %0, ptr %4, align 8, !tbaa !107
  store ptr %1, ptr %5, align 8, !tbaa !50
  %8 = load ptr, ptr %4, align 8
  %9 = getelementptr inbounds nuw %"class.gmx::WriteCheckpointDataHolder", ptr %8, i32 0, i32 1
  store i8 1, ptr %9, align 8, !tbaa !180
  call void @llvm.lifetime.start.p0(i64 8, ptr %6) #17
  call void @llvm.lifetime.start.p0(i64 8, ptr %7) #17
  %10 = getelementptr inbounds nuw %"class.gmx::WriteCheckpointDataHolder", ptr %8, i32 0, i32 0
  %11 = call ptr @_ZN3gmx19KeyValueTreeBuilder10rootObjectEv(ptr noundef nonnull align 8 dereferenceable(72) %10)
  %12 = getelementptr inbounds nuw %"class.gmx::KeyValueTreeObjectBuilder", ptr %7, i32 0, i32 0
  store ptr %11, ptr %12, align 8
  %13 = load ptr, ptr %5, align 8, !tbaa !50
  %14 = call ptr @_ZN3gmx25KeyValueTreeObjectBuilder9addObjectERKNSt7__cxx1112basic_stringIcSt11char_traitsIcESaIcEEE(ptr noundef nonnull align 8 dereferenceable(8) %7, ptr noundef nonnull align 8 dereferenceable(32) %13)
  %15 = getelementptr inbounds nuw %"class.gmx::KeyValueTreeObjectBuilder", ptr %6, i32 0, i32 0
  store ptr %14, ptr %15, align 8
  call void @_ZN3gmx14CheckpointDataILNS_23CheckpointDataOperationE1EEC2EONS_25KeyValueTreeObjectBuilderE(ptr noundef nonnull align 8 dereferenceable(16) %3, ptr noundef nonnull align 8 dereferenceable(8) %6)
  call void @llvm.lifetime.end.p0(i64 8, ptr %7) #17
  call void @llvm.lifetime.end.p0(i64 8, ptr %6) #17
  %16 = getelementptr inbounds nuw %"class.gmx::CheckpointData.26", ptr %3, i32 0, i32 0
  %17 = getelementptr inbounds nuw %"class.std::optional", ptr %16, i32 0, i32 0
  %18 = getelementptr inbounds nuw %"struct.std::_Optional_base", ptr %17, i32 0, i32 0
  %19 = load { ptr, i8 }, ptr %18, align 8
  ret { ptr, i8 } %19
}