; Function Attrs: mustprogress uwtable
define { ptr, i8 } @_ZN3gmx25WriteCheckpointDataHolder14checkpointDataERKNSt7__cxx1112basic_stringIcSt11char_traitsIcESaIcEEE(ptr noundef nonnull align 8 dereferenceable(73) initializes((72, 73)) %0, ptr noundef nonnull align 8 dereferenceable(32) %1) local_unnamed_addr #0 align 2 personality ptr @__gxx_personality_v0 {
  %3 = alloca %"class.gmx::KeyValueTreeObjectBuilder", align 8
  %4 = getelementptr inbounds nuw i8, ptr %0, i64 72
  store i8 1, ptr %4, align 8, !tbaa !68
  call void @llvm.lifetime.start.p0(i64 8, ptr nonnull %3) #21
  store ptr %0, ptr %3, align 8
  %5 = call ptr @_ZN3gmx25KeyValueTreeObjectBuilder9addObjectERKNSt7__cxx1112basic_stringIcSt11char_traitsIcESaIcEEE(ptr noundef nonnull align 8 dereferenceable(8) %3, ptr noundef nonnull align 8 dereferenceable(32) %1)
  call void @llvm.lifetime.end.p0(i64 8, ptr nonnull %3) #21
  %.fca.0.insert = insertvalue { ptr, i8 } poison, ptr %5, 0
  %.fca.1.insert = insertvalue { ptr, i8 } %.fca.0.insert, i8 1, 1
  ret { ptr, i8 } %.fca.1.insert
}